target datalayout = "e-m:e-p270:32:32-p271:32:32-p272:64:64-i64:64-i128:128-f80:128-n8:16:32:64-S128"
target triple = "x86_64-pc-linux-gnu"

%struct.Vector2 = type { float, float }

; Function Attrs: nounwind uwtable
define zeroext i1 @CheckCollisionCircles(<2 x float> %0, float noundef %1, <2 x float> %2, float noundef %3) #0 {
  %5 = alloca %struct.Vector2, align 4
  %6 = alloca %struct.Vector2, align 4
  %7 = alloca float, align 4
  %8 = alloca float, align 4
  %9 = alloca i8, align 1
  %10 = alloca float, align 4
  %11 = alloca float, align 4
  %12 = alloca float, align 4
  %13 = alloca float, align 4
  store <2 x float> %0, ptr %5, align 4
  store <2 x float> %2, ptr %6, align 4
  store float %1, ptr %7, align 4
  store float %3, ptr %8, align 4
  call void @llvm.lifetime.start.p0(i64 1, ptr %9) #8
  store i8 0, ptr %9, align 1
  call void @llvm.lifetime.start.p0(i64 4, ptr %10) #8
  %14 = getelementptr inbounds nuw %struct.Vector2, ptr %6, i32 0, i32 0
  %15 = load float, ptr %14, align 4
  %16 = getelementptr inbounds nuw %struct.Vector2, ptr %5, i32 0, i32 0
  %17 = load float, ptr %16, align 4
  %18 = fsub float %15, %17
  store float %18, ptr %10, align 4
  call void @llvm.lifetime.start.p0(i64 4, ptr %11) #8
  %19 = getelementptr inbounds nuw %struct.Vector2, ptr %6, i32 0, i32 1
  %20 = load float, ptr %19, align 4
  %21 = getelementptr inbounds nuw %struct.Vector2, ptr %5, i32 0, i32 1
  %22 = load float, ptr %21, align 4
  %23 = fsub float %20, %22
  store float %23, ptr %11, align 4
  call void @llvm.lifetime.start.p0(i64 4, ptr %12) #8
  %24 = load float, ptr %10, align 4
  %25 = load float, ptr %10, align 4
  %26 = load float, ptr %11, align 4
  %27 = load float, ptr %11, align 4
  %28 = fmul float %26, %27
  %29 = call float @llvm.fmuladd.f32(float %24, float %25, float %28)
  store float %29, ptr %12, align 4
  call void @llvm.lifetime.start.p0(i64 4, ptr %13) #8
  %30 = load float, ptr %7, align 4
  %31 = load float, ptr %8, align 4
  %32 = fadd float %30, %31
  store float %32, ptr %13, align 4
  %33 = load float, ptr %12, align 4
  %34 = load float, ptr %13, align 4
  %35 = load float, ptr %13, align 4
  %36 = fmul float %34, %35
  %37 = fcmp ole float %33, %36
  %38 = zext i1 %37 to i8
  store i8 %38, ptr %9, align 1
  %39 = load i8, ptr %9, align 1, !range !3, !noundef !4
  %40 = trunc i8 %39 to i1
  call void @llvm.lifetime.end.p0(i64 4, ptr %13) #8
  call void @llvm.lifetime.end.p0(i64 4, ptr %12) #8
  call void @llvm.lifetime.end.p0(i64 4, ptr %11) #8
  call void @llvm.lifetime.end.p0(i64 4, ptr %10) #8
  call void @llvm.lifetime.end.p0(i64 1, ptr %9) #8
  ret i1 %40
}

; Function Attrs: nounwind uwtable
define zeroext i1 @CheckCollisionCircleLine(<2 x float> %0, float noundef %1, <2 x float> %2, <2 x float> %3) #0 {
  %5 = alloca i1, align 1
  %6 = alloca %struct.Vector2, align 4
  %7 = alloca %struct.Vector2, align 4
  %8 = alloca %struct.Vector2, align 4
  %9 = alloca float, align 4
  %10 = alloca float, align 4
  %11 = alloca float, align 4
  %12 = alloca i32, align 4
  %13 = alloca float, align 4
  %14 = alloca float, align 4
  %15 = alloca float, align 4
  %16 = alloca float, align 4
  %17 = alloca float, align 4
  store <2 x float> %0, ptr %6, align 4
  store <2 x float> %2, ptr %7, align 4
  store <2 x float> %3, ptr %8, align 4
  store float %1, ptr %9, align 4
  call void @llvm.lifetime.start.p0(i64 4, ptr %10) #8
  %18 = getelementptr inbounds nuw %struct.Vector2, ptr %7, i32 0, i32 0
  %19 = load float, ptr %18, align 4
  %20 = getelementptr inbounds nuw %struct.Vector2, ptr %8, i32 0, i32 0
  %21 = load float, ptr %20, align 4
  %22 = fsub float %19, %21
  store float %22, ptr %10, align 4
  call void @llvm.lifetime.start.p0(i64 4, ptr %11) #8
  %23 = getelementptr inbounds nuw %struct.Vector2, ptr %7, i32 0, i32 1
  %24 = load float, ptr %23, align 4
  %25 = getelementptr inbounds nuw %struct.Vector2, ptr %8, i32 0, i32 1
  %26 = load float, ptr %25, align 4
  %27 = fsub float %24, %26
  store float %27, ptr %11, align 4
  %28 = load float, ptr %10, align 4
  %29 = call float @llvm.fabs.f32(float %28)
  %30 = load float, ptr %11, align 4
  %31 = call float @llvm.fabs.f32(float %30)
  %32 = fadd float %29, %31
  %33 = fcmp ole float %32, 0x3E80000000000000
  br i1 %33, label %34, label %39

34:                                               ; preds = %4
  %35 = load float, ptr %9, align 4
  %36 = load <2 x float>, ptr %7, align 4
  %37 = load <2 x float>, ptr %6, align 4
  %38 = call zeroext i1 @CheckCollisionCircles(<2 x float> %36, float noundef 0.000000e+00, <2 x float> %37, float noundef %35)
  store i1 %38, ptr %5, align 1
  store i32 1, ptr %12, align 4
  br label %108

39:                                               ; preds = %4
  call void @llvm.lifetime.start.p0(i64 4, ptr %13) #8
  %40 = load float, ptr %10, align 4
  %41 = load float, ptr %10, align 4
  %42 = load float, ptr %11, align 4
  %43 = load float, ptr %11, align 4
  %44 = fmul float %42, %43
  %45 = call float @llvm.fmuladd.f32(float %40, float %41, float %44)
  store float %45, ptr %13, align 4
  call void @llvm.lifetime.start.p0(i64 4, ptr %14) #8
  %46 = getelementptr inbounds nuw %struct.Vector2, ptr %6, i32 0, i32 0
  %47 = load float, ptr %46, align 4
  %48 = getelementptr inbounds nuw %struct.Vector2, ptr %7, i32 0, i32 0
  %49 = load float, ptr %48, align 4
  %50 = fsub float %47, %49
  %51 = getelementptr inbounds nuw %struct.Vector2, ptr %8, i32 0, i32 0
  %52 = load float, ptr %51, align 4
  %53 = getelementptr inbounds nuw %struct.Vector2, ptr %7, i32 0, i32 0
  %54 = load float, ptr %53, align 4
  %55 = fsub float %52, %54
  %56 = getelementptr inbounds nuw %struct.Vector2, ptr %6, i32 0, i32 1
  %57 = load float, ptr %56, align 4
  %58 = getelementptr inbounds nuw %struct.Vector2, ptr %7, i32 0, i32 1
  %59 = load float, ptr %58, align 4
  %60 = fsub float %57, %59
  %61 = getelementptr inbounds nuw %struct.Vector2, ptr %8, i32 0, i32 1
  %62 = load float, ptr %61, align 4
  %63 = getelementptr inbounds nuw %struct.Vector2, ptr %7, i32 0, i32 1
  %64 = load float, ptr %63, align 4
  %65 = fsub float %62, %64
  %66 = fmul float %60, %65
  %67 = call float @llvm.fmuladd.f32(float %50, float %55, float %66)
  %68 = load float, ptr %13, align 4
  %69 = fdiv float %67, %68
  store float %69, ptr %14, align 4
  %70 = load float, ptr %14, align 4
  %71 = fcmp ogt float %70, 1.000000e+00
  br i1 %71, label %72, label %73

72:                                               ; preds = %39
  store float 1.000000e+00, ptr %14, align 4
  br label %78

73:                                               ; preds = %39
  %74 = load float, ptr %14, align 4
  %75 = fcmp olt float %74, 0.000000e+00
  br i1 %75, label %76, label %77

76:                                               ; preds = %73
  store float 0.000000e+00, ptr %14, align 4
  br label %77

77:                                               ; preds = %76, %73
  br label %78

78:                                               ; preds = %77, %72
  call void @llvm.lifetime.start.p0(i64 4, ptr %15) #8
  %79 = getelementptr inbounds nuw %struct.Vector2, ptr %7, i32 0, i32 0
  %80 = load float, ptr %79, align 4
  %81 = load float, ptr %14, align 4
  %82 = load float, ptr %10, align 4
  %83 = fneg float %81
  %84 = call float @llvm.fmuladd.f32(float %83, float %82, float %80)
  %85 = getelementptr inbounds nuw %struct.Vector2, ptr %6, i32 0, i32 0
  %86 = load float, ptr %85, align 4
  %87 = fsub float %84, %86
  store float %87, ptr %15, align 4
  call void @llvm.lifetime.start.p0(i64 4, ptr %16) #8
  %88 = getelementptr inbounds nuw %struct.Vector2, ptr %7, i32 0, i32 1
  %89 = load float, ptr %88, align 4
  %90 = load float, ptr %14, align 4
  %91 = load float, ptr %11, align 4
  %92 = fneg float %90
  %93 = call float @llvm.fmuladd.f32(float %92, float %91, float %89)
  %94 = getelementptr inbounds nuw %struct.Vector2, ptr %6, i32 0, i32 1
  %95 = load float, ptr %94, align 4
  %96 = fsub float %93, %95
  store float %96, ptr %16, align 4
  call void @llvm.lifetime.start.p0(i64 4, ptr %17) #8
  %97 = load float, ptr %15, align 4
  %98 = load float, ptr %15, align 4
  %99 = load float, ptr %16, align 4
  %100 = load float, ptr %16, align 4
  %101 = fmul float %99, %100
  %102 = call float @llvm.fmuladd.f32(float %97, float %98, float %101)
  store float %102, ptr %17, align 4
  %103 = load float, ptr %17, align 4
  %104 = load float, ptr %9, align 4
  %105 = load float, ptr %9, align 4
  %106 = fmul float %104, %105
  %107 = fcmp ole float %103, %106
  store i1 %107, ptr %5, align 1
  store i32 1, ptr %12, align 4
  call void @llvm.lifetime.end.p0(i64 4, ptr %17) #8
  call void @llvm.lifetime.end.p0(i64 4, ptr %16) #8
  call void @llvm.lifetime.end.p0(i64 4, ptr %15) #8
  call void @llvm.lifetime.end.p0(i64 4, ptr %14) #8
  call void @llvm.lifetime.end.p0(i64 4, ptr %13) #8
  br label %108

108:                                              ; preds = %78, %34
  call void @llvm.lifetime.end.p0(i64 4, ptr %11) #8
  call void @llvm.lifetime.end.p0(i64 4, ptr %10) #8
  %109 = load i1, ptr %5, align 1
  ret i1 %109
}