; Function Attrs: mustprogress nofree norecurse nosync nounwind willreturn memory(none) uwtable
define zeroext i1 @CheckCollisionCircleLine(<2 x float> %0, float noundef %1, <2 x float> %2, <2 x float> %3) local_unnamed_addr #11 {
  %.sroa.025.0.vec.extract = extractelement <2 x float> %2, i64 0
  %5 = fsub <2 x float> %2, %3
  %6 = extractelement <2 x float> %5, i64 0
  %.sroa.025.4.vec.extract = extractelement <2 x float> %2, i64 1
  %.sroa.0.4.vec.extract = extractelement <2 x float> %3, i64 1
  %7 = fsub float %.sroa.025.4.vec.extract, %.sroa.0.4.vec.extract
  %8 = tail call float @llvm.fabs.f32(float %6)
  %9 = tail call float @llvm.fabs.f32(float %7)
  %10 = fadd float %8, %9
  %11 = fcmp ugt float %10, 0x3E80000000000000
  br i1 %11, label %22, label %12

12:                                               ; preds = %4
  %13 = fsub <2 x float> %0, %2
  %14 = extractelement <2 x float> %13, i64 0
  %15 = fsub <2 x float> %0, %2
  %16 = fmul <2 x float> %15, %15
  %17 = extractelement <2 x float> %16, i64 1
  %18 = tail call float @llvm.fmuladd.f32(float %14, float %14, float %17)
  %19 = fadd float %1, 0.000000e+00
  %20 = fmul float %19, %19
  %21 = fcmp ole float %18, %20
  br label %48

22:                                               ; preds = %4
  %23 = fmul float %7, %7
  %24 = tail call float @llvm.fmuladd.f32(float %6, float %6, float %23)
  %.sroa.039.0.vec.extract = extractelement <2 x float> %0, i64 0
  %25 = fsub <2 x float> %0, %2
  %26 = extractelement <2 x float> %25, i64 0
  %27 = fsub <2 x float> %3, %2
  %28 = extractelement <2 x float> %27, i64 0
  %.sroa.039.4.vec.extract = extractelement <2 x float> %0, i64 1
  %29 = fsub float %.sroa.039.4.vec.extract, %.sroa.025.4.vec.extract
  %30 = fsub float %.sroa.0.4.vec.extract, %.sroa.025.4.vec.extract
  %31 = fmul float %29, %30
  %32 = tail call float @llvm.fmuladd.f32(float %26, float %28, float %31)
  %33 = fdiv float %32, %24
  %34 = fcmp ogt float %33, 1.000000e+00
  br i1 %34, label %38, label %35

35:                                               ; preds = %22
  %36 = fcmp olt float %33, 0.000000e+00
  br i1 %36, label %37, label %38

37:                                               ; preds = %35
  br label %38

38:                                               ; preds = %22, %35, %37
  %.046 = phi float [ 0.000000e+00, %37 ], [ %33, %35 ], [ 1.000000e+00, %22 ]
  %39 = fneg float %.046
  %40 = tail call float @llvm.fmuladd.f32(float %39, float %6, float %.sroa.025.0.vec.extract)
  %41 = fsub float %40, %.sroa.039.0.vec.extract
  %42 = tail call float @llvm.fmuladd.f32(float %39, float %7, float %.sroa.025.4.vec.extract)
  %43 = fsub float %42, %.sroa.039.4.vec.extract
  %44 = fmul float %43, %43
  %45 = tail call float @llvm.fmuladd.f32(float %41, float %41, float %44)
  %46 = fmul float %1, %1
  %47 = fcmp ole float %45, %46
  br label %48

48:                                               ; preds = %38, %12
  %.0 = phi i1 [ %21, %12 ], [ %47, %38 ]
  ret i1 %.0
}